target datalayout = "e-m:e-p270:32:32-p271:32:32-p272:64:64-i64:64-i128:128-f80:128-n8:16:32:64-S128"
target triple = "x86_64-pc-linux-gnu"

%struct.edata_s = type { i64, ptr, %union.anon, ptr, i64, %union.anon.0, %union.anon.2 }
%union.anon = type { i64 }
%union.anon.0 = type { %union.anon.1 }
%union.anon.1 = type { %struct.edata_heap_link_t }
%struct.edata_heap_link_t = type { %struct.phn_link_s }
%struct.phn_link_s = type { ptr, ptr, ptr }
%union.anon.2 = type { %struct.slab_data_s }
%struct.slab_data_s = type { [8 x i64] }

; Function Attrs: inlinehint nounwind uwtable
define internal void @edata_esn_set(ptr noundef %0, i64 noundef %1) #3 {
  %3 = alloca ptr, align 8
  %4 = alloca i64, align 8
  store ptr %0, ptr %3, align 8, !tbaa !49
  store i64 %1, ptr %4, align 8, !tbaa !17
  %5 = load ptr, ptr %3, align 8, !tbaa !49
  %6 = getelementptr inbounds nuw %struct.edata_s, ptr %5, i32 0, i32 2
  %7 = load i64, ptr %6, align 8, !tbaa !54
  %8 = and i64 %7, -4096
  %9 = load i64, ptr %4, align 8, !tbaa !17
  %10 = and i64 %9, 4095
  %11 = or i64 %8, %10
  %12 = load ptr, ptr %3, align 8, !tbaa !49
  %13 = getelementptr inbounds nuw %struct.edata_s, ptr %12, i32 0, i32 2
  store i64 %11, ptr %13, align 8, !tbaa !54
  ret void
}

; Function Attrs: nounwind uwtable
define hidden ptr @je_base_alloc_edata(ptr noundef %0, ptr noundef %1) #0 {
  %3 = alloca ptr, align 8
  %4 = alloca ptr, align 8
  %5 = alloca ptr, align 8
  %6 = alloca i64, align 8
  %7 = alloca ptr, align 8
  %8 = alloca i32, align 4
  store ptr %0, ptr %4, align 8, !tbaa !9
  store ptr %1, ptr %5, align 8, !tbaa !4
  call void @llvm.lifetime.start.p0(i64 8, ptr %6) #8
  call void @llvm.lifetime.start.p0(i64 8, ptr %7) #8
  %9 = load ptr, ptr %4, align 8, !tbaa !9
  %10 = load ptr, ptr %5, align 8, !tbaa !4
  %11 = call ptr @base_alloc_impl(ptr noundef %9, ptr noundef %10, i64 noundef 128, i64 noundef 128, ptr noundef %6)
  store ptr %11, ptr %7, align 8, !tbaa !49
  %12 = load ptr, ptr %7, align 8, !tbaa !49
  %13 = icmp eq ptr %12, null
  br i1 %13, label %14, label %15

14:                                               ; preds = %2
  store ptr null, ptr %3, align 8
  store i32 1, ptr %8, align 4
  br label %19

15:                                               ; preds = %2
  %16 = load ptr, ptr %7, align 8, !tbaa !49
  %17 = load i64, ptr %6, align 8, !tbaa !17
  call void @edata_esn_set(ptr noundef %16, i64 noundef %17)
  %18 = load ptr, ptr %7, align 8, !tbaa !49
  store ptr %18, ptr %3, align 8
  store i32 1, ptr %8, align 4
  br label %19

19:                                               ; preds = %15, %14
  call void @llvm.lifetime.end.p0(i64 8, ptr %7) #8
  call void @llvm.lifetime.end.p0(i64 8, ptr %6) #8
  %20 = load ptr, ptr %3, align 8
  ret ptr %20
}