; Function Attrs: nounwind uwtable
define hidden noundef ptr @je_base_alloc_edata(ptr noundef %0, ptr noundef %1) local_unnamed_addr #1 {
  %3 = alloca i64, align 8
  call void @llvm.lifetime.start.p0(i64 8, ptr nonnull %3) #9
  %4 = call fastcc ptr @base_alloc_impl(ptr noundef %0, ptr noundef %1, i64 noundef 128, i64 noundef 128, ptr noundef nonnull %3)
  %5 = icmp eq ptr %4, null
  br i1 %5, label %13, label %6

6:                                                ; preds = %2
  %7 = load i64, ptr %3, align 8, !tbaa !11
  %8 = getelementptr inbounds nuw i8, ptr %4, i64 16
  %9 = load i64, ptr %8, align 8, !tbaa !16
  %10 = and i64 %9, -4096
  %11 = and i64 %7, 4095
  %12 = or disjoint i64 %10, %11
  store i64 %12, ptr %8, align 8, !tbaa !16
  br label %13

13:                                               ; preds = %2, %6
  call void @llvm.lifetime.end.p0(i64 8, ptr nonnull %3) #9
  ret ptr %4
}